
GPS_I2C_AVR.elf:     file format elf32-avr

Sections:
Idx Name          Size      VMA       LMA       File off  Algn
  0 .data         00000012  00800100  000007b8  0000084c  2**0
                  CONTENTS, ALLOC, LOAD, DATA
  1 .text         000007b8  00000000  00000000  00000094  2**1
                  CONTENTS, ALLOC, LOAD, READONLY, CODE
  2 .bss          0000008c  00800112  00800112  0000085e  2**0
                  ALLOC
  3 .comment      00000030  00000000  00000000  0000085e  2**0
                  CONTENTS, READONLY
  4 .note.gnu.avr.deviceinfo 00000040  00000000  00000000  00000890  2**2
                  CONTENTS, READONLY
  5 .debug_aranges 000000d8  00000000  00000000  000008d0  2**0
                  CONTENTS, READONLY, DEBUGGING
  6 .debug_info   00000fa9  00000000  00000000  000009a8  2**0
                  CONTENTS, READONLY, DEBUGGING
  7 .debug_abbrev 00000560  00000000  00000000  00001951  2**0
                  CONTENTS, READONLY, DEBUGGING
  8 .debug_line   0000038a  00000000  00000000  00001eb1  2**0
                  CONTENTS, READONLY, DEBUGGING
  9 .debug_frame  00000258  00000000  00000000  0000223c  2**2
                  CONTENTS, READONLY, DEBUGGING
 10 .debug_str    000004bc  00000000  00000000  00002494  2**0
                  CONTENTS, READONLY, DEBUGGING
 11 .debug_loc    00000906  00000000  00000000  00002950  2**0
                  CONTENTS, READONLY, DEBUGGING
 12 .debug_ranges 000000c8  00000000  00000000  00003256  2**0
                  CONTENTS, READONLY, DEBUGGING

Disassembly of section .text:

00000000 <__vectors>:
   0:	0c 94 34 00 	jmp	0x68	; 0x68 <__ctors_end>
   4:	0c 94 51 00 	jmp	0xa2	; 0xa2 <__bad_interrupt>
   8:	0c 94 51 00 	jmp	0xa2	; 0xa2 <__bad_interrupt>
   c:	0c 94 51 00 	jmp	0xa2	; 0xa2 <__bad_interrupt>
  10:	0c 94 51 00 	jmp	0xa2	; 0xa2 <__bad_interrupt>
  14:	0c 94 51 00 	jmp	0xa2	; 0xa2 <__bad_interrupt>
  18:	0c 94 51 00 	jmp	0xa2	; 0xa2 <__bad_interrupt>
  1c:	0c 94 51 00 	jmp	0xa2	; 0xa2 <__bad_interrupt>
  20:	0c 94 51 00 	jmp	0xa2	; 0xa2 <__bad_interrupt>
  24:	0c 94 51 00 	jmp	0xa2	; 0xa2 <__bad_interrupt>
  28:	0c 94 51 00 	jmp	0xa2	; 0xa2 <__bad_interrupt>
  2c:	0c 94 51 00 	jmp	0xa2	; 0xa2 <__bad_interrupt>
  30:	0c 94 51 00 	jmp	0xa2	; 0xa2 <__bad_interrupt>
  34:	0c 94 51 00 	jmp	0xa2	; 0xa2 <__bad_interrupt>
  38:	0c 94 51 00 	jmp	0xa2	; 0xa2 <__bad_interrupt>
  3c:	0c 94 51 00 	jmp	0xa2	; 0xa2 <__bad_interrupt>
  40:	0c 94 51 00 	jmp	0xa2	; 0xa2 <__bad_interrupt>
  44:	0c 94 51 00 	jmp	0xa2	; 0xa2 <__bad_interrupt>
  48:	0c 94 2a 02 	jmp	0x454	; 0x454 <__vector_18>
  4c:	0c 94 51 00 	jmp	0xa2	; 0xa2 <__bad_interrupt>
  50:	0c 94 51 00 	jmp	0xa2	; 0xa2 <__bad_interrupt>
  54:	0c 94 51 00 	jmp	0xa2	; 0xa2 <__bad_interrupt>
  58:	0c 94 51 00 	jmp	0xa2	; 0xa2 <__bad_interrupt>
  5c:	0c 94 51 00 	jmp	0xa2	; 0xa2 <__bad_interrupt>
  60:	0c 94 28 03 	jmp	0x650	; 0x650 <__vector_24>
  64:	0c 94 51 00 	jmp	0xa2	; 0xa2 <__bad_interrupt>

00000068 <__ctors_end>:
  68:	11 24       	eor	r1, r1
  6a:	1f be       	out	0x3f, r1	; 63
  6c:	cf ef       	ldi	r28, 0xFF	; 255
  6e:	d8 e0       	ldi	r29, 0x08	; 8
  70:	de bf       	out	0x3e, r29	; 62
  72:	cd bf       	out	0x3d, r28	; 61

00000074 <__do_copy_data>:
  74:	11 e0       	ldi	r17, 0x01	; 1
  76:	a0 e0       	ldi	r26, 0x00	; 0
  78:	b1 e0       	ldi	r27, 0x01	; 1
  7a:	e8 eb       	ldi	r30, 0xB8	; 184
  7c:	f7 e0       	ldi	r31, 0x07	; 7
  7e:	02 c0       	rjmp	.+4      	; 0x84 <__do_copy_data+0x10>
  80:	05 90       	lpm	r0, Z+
  82:	0d 92       	st	X+, r0
  84:	a2 31       	cpi	r26, 0x12	; 18
  86:	b1 07       	cpc	r27, r17
  88:	d9 f7       	brne	.-10     	; 0x80 <__do_copy_data+0xc>

0000008a <__do_clear_bss>:
  8a:	21 e0       	ldi	r18, 0x01	; 1
  8c:	a2 e1       	ldi	r26, 0x12	; 18
  8e:	b1 e0       	ldi	r27, 0x01	; 1
  90:	01 c0       	rjmp	.+2      	; 0x94 <.do_clear_bss_start>

00000092 <.do_clear_bss_loop>:
  92:	1d 92       	st	X+, r1

00000094 <.do_clear_bss_start>:
  94:	ae 39       	cpi	r26, 0x9E	; 158
  96:	b2 07       	cpc	r27, r18
  98:	e1 f7       	brne	.-8      	; 0x92 <.do_clear_bss_loop>
  9a:	0e 94 70 02 	call	0x4e0	; 0x4e0 <main>
  9e:	0c 94 da 03 	jmp	0x7b4	; 0x7b4 <_exit>

000000a2 <__bad_interrupt>:
  a2:	0c 94 00 00 	jmp	0	; 0x0 <__vectors>

000000a6 <USART_Init>:
#include "initialization.h"

void USART_Init( unsigned int ubrr)
{
	/*Set baud rate */
	UBRR0H = (unsigned char)(ubrr>>8);
  a6:	90 93 c5 00 	sts	0x00C5, r25
	UBRR0L = (unsigned char)ubrr;
  aa:	80 93 c4 00 	sts	0x00C4, r24
	
	/*Enable receiver and transmitter and RX interrupt */
	UCSR0B = (1<<RXEN0)|(1<<TXEN0)|(1<<RXCIE0);
  ae:	88 e9       	ldi	r24, 0x98	; 152
  b0:	80 93 c1 00 	sts	0x00C1, r24
	/* Set frame format: 8data, 1stop bit */
	UCSR0C = (3<<UCSZ00);
  b4:	86 e0       	ldi	r24, 0x06	; 6
  b6:	80 93 c2 00 	sts	0x00C2, r24
  ba:	08 95       	ret

000000bc <compareCharArray>:
	return TWIerrorMsg;
}

uint8_t compareCharArray(char a[], char b[], uint8_t size)
{
	for (uint8_t i = 0;i < size; i++)
  bc:	44 23       	and	r20, r20
  be:	d1 f0       	breq	.+52     	; 0xf4 <compareCharArray+0x38>
	{
		if (a[i] != b[i])
  c0:	fc 01       	movw	r30, r24
  c2:	30 81       	ld	r19, Z
  c4:	fb 01       	movw	r30, r22
  c6:	20 81       	ld	r18, Z
  c8:	32 13       	cpse	r19, r18
  ca:	16 c0       	rjmp	.+44     	; 0xf8 <compareCharArray+0x3c>
  cc:	fc 01       	movw	r30, r24
  ce:	31 96       	adiw	r30, 0x01	; 1
  d0:	db 01       	movw	r26, r22
  d2:	11 96       	adiw	r26, 0x01	; 1
  d4:	41 50       	subi	r20, 0x01	; 1
  d6:	50 e0       	ldi	r21, 0x00	; 0
  d8:	4f 5f       	subi	r20, 0xFF	; 255
  da:	5f 4f       	sbci	r21, 0xFF	; 255
  dc:	48 0f       	add	r20, r24
  de:	59 1f       	adc	r21, r25
  e0:	04 c0       	rjmp	.+8      	; 0xea <compareCharArray+0x2e>
  e2:	21 91       	ld	r18, Z+
  e4:	9d 91       	ld	r25, X+
  e6:	29 13       	cpse	r18, r25
  e8:	09 c0       	rjmp	.+18     	; 0xfc <compareCharArray+0x40>
	return TWIerrorMsg;
}

uint8_t compareCharArray(char a[], char b[], uint8_t size)
{
	for (uint8_t i = 0;i < size; i++)
  ea:	e4 17       	cp	r30, r20
  ec:	f5 07       	cpc	r31, r21
  ee:	c9 f7       	brne	.-14     	; 0xe2 <compareCharArray+0x26>
	{
		if (a[i] != b[i])
			return 0;
	}
	return 1;
  f0:	81 e0       	ldi	r24, 0x01	; 1
  f2:	08 95       	ret
  f4:	81 e0       	ldi	r24, 0x01	; 1
  f6:	08 95       	ret
uint8_t compareCharArray(char a[], char b[], uint8_t size)
{
	for (uint8_t i = 0;i < size; i++)
	{
		if (a[i] != b[i])
			return 0;
  f8:	80 e0       	ldi	r24, 0x00	; 0
  fa:	08 95       	ret
  fc:	80 e0       	ldi	r24, 0x00	; 0
	}
	return 1;
}
  fe:	08 95       	ret

00000100 <fillCharArray>:
}
*/

//Returns the amount of units to increment the pointer and takes a pointer to a checksum
uint8_t fillCharArray(char array[], char* pointer, uint8_t size, uint8_t no_of_commas, gps_data_type_t type)
{
 100:	0f 93       	push	r16
 102:	cf 93       	push	r28
 104:	df 93       	push	r29
 106:	ec 01       	movw	r28, r24
 108:	e6 2f       	mov	r30, r22
 10a:	f7 2f       	mov	r31, r23
  uint8_t move_pointer_by = 0;
 10c:	80 e0       	ldi	r24, 0x00	; 0
  uint8_t total = 0;

  for(total; total <= size; total++)
  {
    if(*pointer == ',' || *pointer == '\n')
 10e:	91 91       	ld	r25, Z+
 110:	9c 32       	cpi	r25, 0x2C	; 44
 112:	11 f0       	breq	.+4      	; 0x118 <fillCharArray+0x18>
 114:	9a 30       	cpi	r25, 0x0A	; 10
 116:	29 f4       	brne	.+10     	; 0x122 <fillCharArray+0x22>
    {
      no_of_commas--;
 118:	21 50       	subi	r18, 0x01	; 1
      if (!no_of_commas)
 11a:	19 f4       	brne	.+6      	; 0x122 <fillCharArray+0x22>
      {
        move_pointer_by++;
        break;
 11c:	98 2f       	mov	r25, r24
    if(*pointer == ',' || *pointer == '\n')
    {
      no_of_commas--;
      if (!no_of_commas)
      {
        move_pointer_by++;
 11e:	8f 5f       	subi	r24, 0xFF	; 255
        break;
 120:	08 c0       	rjmp	.+16     	; 0x132 <fillCharArray+0x32>
      }
    }
    array[total] = (char)*pointer;
 122:	de 01       	movw	r26, r28
 124:	a8 0f       	add	r26, r24
 126:	b1 1d       	adc	r27, r1
 128:	9c 93       	st	X, r25
    pointer++;
    move_pointer_by++;
 12a:	8f 5f       	subi	r24, 0xFF	; 255
uint8_t fillCharArray(char array[], char* pointer, uint8_t size, uint8_t no_of_commas, gps_data_type_t type)
{
  uint8_t move_pointer_by = 0;
  uint8_t total = 0;

  for(total; total <= size; total++)
 12c:	48 17       	cp	r20, r24
 12e:	78 f7       	brcc	.-34     	; 0x10e <fillCharArray+0xe>
 130:	98 2f       	mov	r25, r24
    array[total] = (char)*pointer;
    pointer++;
    move_pointer_by++;
  }

  if(type != NONE)
 132:	06 30       	cpi	r16, 0x06	; 6
 134:	31 f0       	breq	.+12     	; 0x142 <fillCharArray+0x42>
    I2C_checksum_array[type] = (char)(total+'0');
 136:	e0 2f       	mov	r30, r16
 138:	f0 e0       	ldi	r31, 0x00	; 0
 13a:	e0 50       	subi	r30, 0x00	; 0
 13c:	ff 4f       	sbci	r31, 0xFF	; 255
 13e:	90 5d       	subi	r25, 0xD0	; 208
 140:	90 83       	st	Z, r25
  
  return move_pointer_by;
}
 142:	df 91       	pop	r29
 144:	cf 91       	pop	r28
 146:	0f 91       	pop	r16
 148:	08 95       	ret

0000014a <extractData>:
	USART_Transmit('\n');
}

//TODO CHECKSUM CHECK
void extractData(char* message_index)
{
 14a:	ef 92       	push	r14
 14c:	ff 92       	push	r15
 14e:	0f 93       	push	r16
 150:	cf 93       	push	r28
 152:	df 93       	push	r29
 154:	cd b7       	in	r28, 0x3d	; 61
 156:	de b7       	in	r29, 0x3e	; 62
 158:	c5 57       	subi	r28, 0x75	; 117
 15a:	d1 09       	sbc	r29, r1
 15c:	0f b6       	in	r0, 0x3f	; 63
 15e:	f8 94       	cli
 160:	de bf       	out	0x3e, r29	; 62
 162:	0f be       	out	0x3f, r0	; 63
 164:	cd bf       	out	0x3d, r28	; 61
 166:	bc 01       	movw	r22, r24
	char message_type[MESSEAGE_TYPE_SIZE] = {'E','R','R'};
 168:	85 e0       	ldi	r24, 0x05	; 5
 16a:	fe 01       	movw	r30, r28
 16c:	31 96       	adiw	r30, 0x01	; 1
 16e:	df 01       	movw	r26, r30
 170:	38 2f       	mov	r19, r24
 172:	1d 92       	st	X+, r1
 174:	3a 95       	dec	r19
 176:	e9 f7       	brne	.-6      	; 0x172 <extractData+0x28>
 178:	25 e4       	ldi	r18, 0x45	; 69
 17a:	29 83       	std	Y+1, r18	; 0x01
 17c:	92 e5       	ldi	r25, 0x52	; 82
 17e:	9a 83       	std	Y+2, r25	; 0x02
 180:	9b 83       	std	Y+3, r25	; 0x03
	char gprmc[] = {'G','P','R','M','C'};
 182:	35 e0       	ldi	r19, 0x05	; 5
 184:	e7 e0       	ldi	r30, 0x07	; 7
 186:	f1 e0       	ldi	r31, 0x01	; 1
 188:	de 01       	movw	r26, r28
 18a:	16 96       	adiw	r26, 0x06	; 6
 18c:	01 90       	ld	r0, Z+
 18e:	0d 92       	st	X+, r0
 190:	3a 95       	dec	r19
 192:	e1 f7       	brne	.-8      	; 0x18c <extractData+0x42>
	char gpgga[] = {'G','P','G','G','A'};
 194:	35 e0       	ldi	r19, 0x05	; 5
 196:	ec e0       	ldi	r30, 0x0C	; 12
 198:	f1 e0       	ldi	r31, 0x01	; 1
 19a:	de 01       	movw	r26, r28
 19c:	1b 96       	adiw	r26, 0x0b	; 11
 19e:	01 90       	ld	r0, Z+
 1a0:	0d 92       	st	X+, r0
 1a2:	3a 95       	dec	r19
 1a4:	e1 f7       	brne	.-8      	; 0x19e <extractData+0x54>
	char temp_time[TIME_SIZE] = {'E','R','6'};
 1a6:	fe 01       	movw	r30, r28
 1a8:	70 96       	adiw	r30, 0x10	; 16
 1aa:	39 e0       	ldi	r19, 0x09	; 9
 1ac:	df 01       	movw	r26, r30
 1ae:	1d 92       	st	X+, r1
 1b0:	3a 95       	dec	r19
 1b2:	e9 f7       	brne	.-6      	; 0x1ae <extractData+0x64>
 1b4:	28 8b       	std	Y+16, r18	; 0x10
 1b6:	99 8b       	std	Y+17, r25	; 0x11
 1b8:	36 e3       	ldi	r19, 0x36	; 54
 1ba:	3a 8b       	std	Y+18, r19	; 0x12
	char temp_latitude[LATITUDE_SIZE] = {'E','R','1'};
 1bc:	39 96       	adiw	r30, 0x09	; 9
 1be:	3c e0       	ldi	r19, 0x0C	; 12
 1c0:	df 01       	movw	r26, r30
 1c2:	1d 92       	st	X+, r1
 1c4:	3a 95       	dec	r19
 1c6:	e9 f7       	brne	.-6      	; 0x1c2 <extractData+0x78>
 1c8:	29 8f       	std	Y+25, r18	; 0x19
 1ca:	9a 8f       	std	Y+26, r25	; 0x1a
 1cc:	31 e3       	ldi	r19, 0x31	; 49
 1ce:	3b 8f       	std	Y+27, r19	; 0x1b
	char temp_longitude[LONGITUDE_SIZE] = {'E','R','2'};
 1d0:	3c 96       	adiw	r30, 0x0c	; 12
 1d2:	3d e0       	ldi	r19, 0x0D	; 13
 1d4:	df 01       	movw	r26, r30
 1d6:	1d 92       	st	X+, r1
 1d8:	3a 95       	dec	r19
 1da:	e9 f7       	brne	.-6      	; 0x1d6 <extractData+0x8c>
 1dc:	2d a3       	std	Y+37, r18	; 0x25
 1de:	9e a3       	std	Y+38, r25	; 0x26
 1e0:	32 e3       	ldi	r19, 0x32	; 50
 1e2:	3f a3       	std	Y+39, r19	; 0x27
	char temp_speed[SPEED_SIZE] = {'E','R','3'}; //in knots
 1e4:	3d 96       	adiw	r30, 0x0d	; 13
 1e6:	df 01       	movw	r26, r30
 1e8:	38 2f       	mov	r19, r24
 1ea:	1d 92       	st	X+, r1
 1ec:	3a 95       	dec	r19
 1ee:	e9 f7       	brne	.-6      	; 0x1ea <extractData+0xa0>
 1f0:	2a ab       	std	Y+50, r18	; 0x32
 1f2:	9b ab       	std	Y+51, r25	; 0x33
 1f4:	33 e3       	ldi	r19, 0x33	; 51
 1f6:	3c ab       	std	Y+52, r19	; 0x34
	char temp_course[COURSE_SIZE] = {'E','R','4'};
 1f8:	35 96       	adiw	r30, 0x05	; 5
 1fa:	df 01       	movw	r26, r30
 1fc:	1d 92       	st	X+, r1
 1fe:	8a 95       	dec	r24
 200:	e9 f7       	brne	.-6      	; 0x1fc <extractData+0xb2>
 202:	2f ab       	std	Y+55, r18	; 0x37
 204:	98 af       	std	Y+56, r25	; 0x38
 206:	84 e3       	ldi	r24, 0x34	; 52
 208:	89 af       	std	Y+57, r24	; 0x39
	char temp_altitude[ALTITUDE_SIZE] = {'E','R','5'};
 20a:	35 96       	adiw	r30, 0x05	; 5
 20c:	86 e0       	ldi	r24, 0x06	; 6
 20e:	df 01       	movw	r26, r30
 210:	1d 92       	st	X+, r1
 212:	8a 95       	dec	r24
 214:	e9 f7       	brne	.-6      	; 0x210 <extractData+0xc6>
 216:	2c af       	std	Y+60, r18	; 0x3c
 218:	9d af       	std	Y+61, r25	; 0x3d
 21a:	85 e3       	ldi	r24, 0x35	; 53
 21c:	8e af       	std	Y+62, r24	; 0x3e
	char temp[TEMP_SIZE];
	char message_checksum[GPS_CHECKSUM_SIZE];
	
	if (*message_index == '$')
 21e:	fb 01       	movw	r30, r22
 220:	80 81       	ld	r24, Z
 222:	84 32       	cpi	r24, 0x24	; 36
 224:	09 f0       	breq	.+2      	; 0x228 <extractData+0xde>
 226:	c7 c0       	rjmp	.+398    	; 0x3b6 <extractData+0x26c>
	{		
		message_index++;
 228:	7b 01       	movw	r14, r22
 22a:	ff ef       	ldi	r31, 0xFF	; 255
 22c:	ef 1a       	sub	r14, r31
 22e:	ff 0a       	sbc	r15, r31
		message_index += fillCharArray(message_type, message_index, MESSEAGE_TYPE_SIZE,1, NONE);
 230:	06 e0       	ldi	r16, 0x06	; 6
 232:	21 e0       	ldi	r18, 0x01	; 1
 234:	45 e0       	ldi	r20, 0x05	; 5
 236:	b7 01       	movw	r22, r14
 238:	ce 01       	movw	r24, r28
 23a:	01 96       	adiw	r24, 0x01	; 1
 23c:	0e 94 80 00 	call	0x100	; 0x100 <fillCharArray>
 240:	e8 0e       	add	r14, r24
 242:	f1 1c       	adc	r15, r1
		if (compareCharArray(message_type, gprmc, MESSEAGE_TYPE_SIZE))
 244:	45 e0       	ldi	r20, 0x05	; 5
 246:	be 01       	movw	r22, r28
 248:	6a 5f       	subi	r22, 0xFA	; 250
 24a:	7f 4f       	sbci	r23, 0xFF	; 255
 24c:	ce 01       	movw	r24, r28
 24e:	01 96       	adiw	r24, 0x01	; 1
 250:	0e 94 5e 00 	call	0xbc	; 0xbc <compareCharArray>
 254:	88 23       	and	r24, r24
 256:	09 f4       	brne	.+2      	; 0x25a <extractData+0x110>
 258:	88 c0       	rjmp	.+272    	; 0x36a <extractData+0x220>
		{
			//sample gprmc "$GPRMC,054313.80,A,4328.72490,N,08032.14223,W,0.075,,090416,,,A*68"

			message_index += fillCharArray(temp_time, message_index, TIME_SIZE,1, TIME);
 25a:	05 e0       	ldi	r16, 0x05	; 5
 25c:	21 e0       	ldi	r18, 0x01	; 1
 25e:	49 e0       	ldi	r20, 0x09	; 9
 260:	b7 01       	movw	r22, r14
 262:	ce 01       	movw	r24, r28
 264:	40 96       	adiw	r24, 0x10	; 16
 266:	0e 94 80 00 	call	0x100	; 0x100 <fillCharArray>
 26a:	f7 01       	movw	r30, r14
 26c:	e8 0f       	add	r30, r24
 26e:	f1 1d       	adc	r31, r1

			if(*message_index == 'A')
 270:	80 81       	ld	r24, Z
 272:	81 34       	cpi	r24, 0x41	; 65
 274:	09 f0       	breq	.+2      	; 0x278 <extractData+0x12e>
 276:	42 c0       	rjmp	.+132    	; 0x2fc <extractData+0x1b2>
			{
				message_index += 2;
 278:	7f 01       	movw	r14, r30
 27a:	32 e0       	ldi	r19, 0x02	; 2
 27c:	e3 0e       	add	r14, r19
 27e:	f1 1c       	adc	r15, r1
				message_index += fillCharArray(temp_latitude, message_index, LATITUDE_SIZE,2, LAT);
 280:	00 e0       	ldi	r16, 0x00	; 0
 282:	22 e0       	ldi	r18, 0x02	; 2
 284:	4c e0       	ldi	r20, 0x0C	; 12
 286:	b7 01       	movw	r22, r14
 288:	ce 01       	movw	r24, r28
 28a:	49 96       	adiw	r24, 0x19	; 25
 28c:	0e 94 80 00 	call	0x100	; 0x100 <fillCharArray>
 290:	e8 0e       	add	r14, r24
 292:	f1 1c       	adc	r15, r1
				message_index += fillCharArray(temp_longitude, message_index, LONGITUDE_SIZE,2, LONG);
 294:	01 e0       	ldi	r16, 0x01	; 1
 296:	22 e0       	ldi	r18, 0x02	; 2
 298:	4d e0       	ldi	r20, 0x0D	; 13
 29a:	b7 01       	movw	r22, r14
 29c:	ce 01       	movw	r24, r28
 29e:	85 96       	adiw	r24, 0x25	; 37
 2a0:	0e 94 80 00 	call	0x100	; 0x100 <fillCharArray>
 2a4:	e8 0e       	add	r14, r24
 2a6:	f1 1c       	adc	r15, r1
				message_index += fillCharArray(temp_speed, message_index, SPEED_SIZE,1, SPD);
 2a8:	03 e0       	ldi	r16, 0x03	; 3
 2aa:	21 e0       	ldi	r18, 0x01	; 1
 2ac:	45 e0       	ldi	r20, 0x05	; 5
 2ae:	b7 01       	movw	r22, r14
 2b0:	ce 01       	movw	r24, r28
 2b2:	c2 96       	adiw	r24, 0x32	; 50
 2b4:	0e 94 80 00 	call	0x100	; 0x100 <fillCharArray>
 2b8:	e8 0e       	add	r14, r24
 2ba:	f1 1c       	adc	r15, r1
				message_index += fillCharArray(temp_course, message_index, COURSE_SIZE,1, CRSE);
 2bc:	04 e0       	ldi	r16, 0x04	; 4
 2be:	21 e0       	ldi	r18, 0x01	; 1
 2c0:	45 e0       	ldi	r20, 0x05	; 5
 2c2:	b7 01       	movw	r22, r14
 2c4:	ce 01       	movw	r24, r28
 2c6:	c7 96       	adiw	r24, 0x37	; 55
 2c8:	0e 94 80 00 	call	0x100	; 0x100 <fillCharArray>
 2cc:	e8 0e       	add	r14, r24
 2ce:	f1 1c       	adc	r15, r1
				message_index += fillCharArray(temp, message_index, TEMP_SIZE, 3, NONE);
 2d0:	06 e0       	ldi	r16, 0x06	; 6
 2d2:	23 e0       	ldi	r18, 0x03	; 3
 2d4:	42 e3       	ldi	r20, 0x32	; 50
 2d6:	b7 01       	movw	r22, r14
 2d8:	ce 01       	movw	r24, r28
 2da:	8e 5b       	subi	r24, 0xBE	; 190
 2dc:	9f 4f       	sbci	r25, 0xFF	; 255
 2de:	0e 94 80 00 	call	0x100	; 0x100 <fillCharArray>
 2e2:	68 2f       	mov	r22, r24
 2e4:	70 e0       	ldi	r23, 0x00	; 0
 2e6:	6e 5f       	subi	r22, 0xFE	; 254
 2e8:	7f 4f       	sbci	r23, 0xFF	; 255
				message_index += 2;
 2ea:	6e 0d       	add	r22, r14
 2ec:	7f 1d       	adc	r23, r15
				fillCharArray(message_checksum, message_index, GPS_CHECKSUM_SIZE, 1, NONE);				
 2ee:	21 e0       	ldi	r18, 0x01	; 1
 2f0:	42 e0       	ldi	r20, 0x02	; 2
 2f2:	ce 01       	movw	r24, r28
 2f4:	8c 58       	subi	r24, 0x8C	; 140
 2f6:	9f 4f       	sbci	r25, 0xFF	; 255
 2f8:	0e 94 80 00 	call	0x100	; 0x100 <fillCharArray>
			printCharArray(temp_speed, SPEED_SIZE);
			printCharArray(temp_course, COURSE_SIZE);
			printCharArray(message_checksum,GPS_CHECKSUM_SIZE);
			*/
      
      memcpy(time, temp_time, TIME_SIZE);
 2fc:	89 e0       	ldi	r24, 0x09	; 9
 2fe:	fe 01       	movw	r30, r28
 300:	70 96       	adiw	r30, 0x10	; 16
 302:	a4 e8       	ldi	r26, 0x84	; 132
 304:	b1 e0       	ldi	r27, 0x01	; 1
 306:	01 90       	ld	r0, Z+
 308:	0d 92       	st	X+, r0
 30a:	8a 95       	dec	r24
 30c:	e1 f7       	brne	.-8      	; 0x306 <extractData+0x1bc>
      memcpy(latitude, temp_latitude, LATITUDE_SIZE);
 30e:	8c e0       	ldi	r24, 0x0C	; 12
 310:	fe 01       	movw	r30, r28
 312:	79 96       	adiw	r30, 0x19	; 25
 314:	ad e8       	ldi	r26, 0x8D	; 141
 316:	b1 e0       	ldi	r27, 0x01	; 1
 318:	01 90       	ld	r0, Z+
 31a:	0d 92       	st	X+, r0
 31c:	8a 95       	dec	r24
 31e:	e1 f7       	brne	.-8      	; 0x318 <extractData+0x1ce>
      memcpy(longitude, temp_longitude, LONGITUDE_SIZE);
 320:	8d e0       	ldi	r24, 0x0D	; 13
 322:	fe 01       	movw	r30, r28
 324:	b5 96       	adiw	r30, 0x25	; 37
 326:	a1 e7       	ldi	r26, 0x71	; 113
 328:	b1 e0       	ldi	r27, 0x01	; 1
 32a:	01 90       	ld	r0, Z+
 32c:	0d 92       	st	X+, r0
 32e:	8a 95       	dec	r24
 330:	e1 f7       	brne	.-8      	; 0x32a <extractData+0x1e0>
      memcpy(altitude, temp_altitude, ALTITUDE_SIZE);
 332:	86 e0       	ldi	r24, 0x06	; 6
 334:	fe 01       	movw	r30, r28
 336:	fc 96       	adiw	r30, 0x3c	; 60
 338:	ae e7       	ldi	r26, 0x7E	; 126
 33a:	b1 e0       	ldi	r27, 0x01	; 1
 33c:	01 90       	ld	r0, Z+
 33e:	0d 92       	st	X+, r0
 340:	8a 95       	dec	r24
 342:	e1 f7       	brne	.-8      	; 0x33c <extractData+0x1f2>
      memcpy(speed, temp_speed, SPEED_SIZE);
 344:	85 e0       	ldi	r24, 0x05	; 5
 346:	fe 01       	movw	r30, r28
 348:	f2 96       	adiw	r30, 0x32	; 50
 34a:	a9 e9       	ldi	r26, 0x99	; 153
 34c:	b1 e0       	ldi	r27, 0x01	; 1
 34e:	01 90       	ld	r0, Z+
 350:	0d 92       	st	X+, r0
 352:	8a 95       	dec	r24
 354:	e1 f7       	brne	.-8      	; 0x34e <extractData+0x204>
      memcpy(course, temp_course, COURSE_SIZE);
 356:	85 e0       	ldi	r24, 0x05	; 5
 358:	fe 01       	movw	r30, r28
 35a:	f7 96       	adiw	r30, 0x37	; 55
 35c:	ac e6       	ldi	r26, 0x6C	; 108
 35e:	b1 e0       	ldi	r27, 0x01	; 1
 360:	01 90       	ld	r0, Z+
 362:	0d 92       	st	X+, r0
 364:	8a 95       	dec	r24
 366:	e1 f7       	brne	.-8      	; 0x360 <extractData+0x216>
 368:	26 c0       	rjmp	.+76     	; 0x3b6 <extractData+0x26c>
		}
		else if(compareCharArray(message_type,gpgga,MESSEAGE_TYPE_SIZE))
 36a:	45 e0       	ldi	r20, 0x05	; 5
 36c:	be 01       	movw	r22, r28
 36e:	65 5f       	subi	r22, 0xF5	; 245
 370:	7f 4f       	sbci	r23, 0xFF	; 255
 372:	ce 01       	movw	r24, r28
 374:	01 96       	adiw	r24, 0x01	; 1
 376:	0e 94 5e 00 	call	0xbc	; 0xbc <compareCharArray>
 37a:	88 23       	and	r24, r24
 37c:	e1 f0       	breq	.+56     	; 0x3b6 <extractData+0x26c>
		{
			//sample gpgga "$GPGGA,054313.80,4328.72490,N,08032.14223,W,1,09,0.97,344.8,M,-36.0,M,,*68"
			message_index += fillCharArray(temp, message_index, TEMP_SIZE, 8, NONE);
 37e:	06 e0       	ldi	r16, 0x06	; 6
 380:	28 e0       	ldi	r18, 0x08	; 8
 382:	42 e3       	ldi	r20, 0x32	; 50
 384:	b7 01       	movw	r22, r14
 386:	ce 01       	movw	r24, r28
 388:	8e 5b       	subi	r24, 0xBE	; 190
 38a:	9f 4f       	sbci	r25, 0xFF	; 255
 38c:	0e 94 80 00 	call	0x100	; 0x100 <fillCharArray>
 390:	b7 01       	movw	r22, r14
 392:	68 0f       	add	r22, r24
 394:	71 1d       	adc	r23, r1
			fillCharArray(temp_altitude, message_index, ALTITUDE_SIZE,1, ALT);
 396:	02 e0       	ldi	r16, 0x02	; 2
 398:	21 e0       	ldi	r18, 0x01	; 1
 39a:	46 e0       	ldi	r20, 0x06	; 6
 39c:	ce 01       	movw	r24, r28
 39e:	cc 96       	adiw	r24, 0x3c	; 60
 3a0:	0e 94 80 00 	call	0x100	; 0x100 <fillCharArray>
      /*
			printCharArray(message_type, MESSEAGE_TYPE_SIZE);
			printCharArray(temp_altitude, ALTITUDE_SIZE);
			*/
      
      memcpy(altitude, temp_altitude, ALTITUDE_SIZE);
 3a4:	86 e0       	ldi	r24, 0x06	; 6
 3a6:	fe 01       	movw	r30, r28
 3a8:	fc 96       	adiw	r30, 0x3c	; 60
 3aa:	ae e7       	ldi	r26, 0x7E	; 126
 3ac:	b1 e0       	ldi	r27, 0x01	; 1
 3ae:	01 90       	ld	r0, Z+
 3b0:	0d 92       	st	X+, r0
 3b2:	8a 95       	dec	r24
 3b4:	e1 f7       	brne	.-8      	; 0x3ae <extractData+0x264>
		}
	}
}
 3b6:	cb 58       	subi	r28, 0x8B	; 139
 3b8:	df 4f       	sbci	r29, 0xFF	; 255
 3ba:	0f b6       	in	r0, 0x3f	; 63
 3bc:	f8 94       	cli
 3be:	de bf       	out	0x3e, r29	; 62
 3c0:	0f be       	out	0x3f, r0	; 63
 3c2:	cd bf       	out	0x3d, r28	; 61
 3c4:	df 91       	pop	r29
 3c6:	cf 91       	pop	r28
 3c8:	0f 91       	pop	r16
 3ca:	ff 90       	pop	r15
 3cc:	ef 90       	pop	r14
 3ce:	08 95       	ret

000003d0 <prepare_TWI_data>:

void prepare_TWI_data (gps_data_type_t type, char* data, uint8_t size)
{
 3d0:	af 92       	push	r10
 3d2:	bf 92       	push	r11
 3d4:	cf 92       	push	r12
 3d6:	df 92       	push	r13
 3d8:	ef 92       	push	r14
 3da:	ff 92       	push	r15
 3dc:	0f 93       	push	r16
 3de:	1f 93       	push	r17
 3e0:	cf 93       	push	r28
 3e2:	df 93       	push	r29
 3e4:	cd b7       	in	r28, 0x3d	; 61
 3e6:	de b7       	in	r29, 0x3e	; 62
 3e8:	b8 2e       	mov	r11, r24
 3ea:	a4 2e       	mov	r10, r20
  memcpy(include_checksum,data, size);
  include_checksum[size] = I2C_checksum_array[type];
  TWI_Start_Transceiver_With_Data(include_checksum, size+1);
  //printCharArray(include_checksum, size+1);
  
}
 3ec:	cd b6       	in	r12, 0x3d	; 61
 3ee:	de b6       	in	r13, 0x3e	; 62
void prepare_TWI_data (gps_data_type_t type, char* data, uint8_t size)
{
  //printCharArray(data,size);
  //TWI_Start_Transceiver_With_Data(data, size);
  
  unsigned char include_checksum[size+1];
 3f0:	04 2f       	mov	r16, r20
 3f2:	10 e0       	ldi	r17, 0x00	; 0
 3f4:	c8 01       	movw	r24, r16
 3f6:	01 96       	adiw	r24, 0x01	; 1
 3f8:	2d b7       	in	r18, 0x3d	; 61
 3fa:	3e b7       	in	r19, 0x3e	; 62
 3fc:	28 1b       	sub	r18, r24
 3fe:	39 0b       	sbc	r19, r25
 400:	0f b6       	in	r0, 0x3f	; 63
 402:	f8 94       	cli
 404:	3e bf       	out	0x3e, r19	; 62
 406:	0f be       	out	0x3f, r0	; 63
 408:	2d bf       	out	0x3d, r18	; 61
 40a:	8d b7       	in	r24, 0x3d	; 61
 40c:	9e b7       	in	r25, 0x3e	; 62
 40e:	01 96       	adiw	r24, 0x01	; 1
 410:	7c 01       	movw	r14, r24
  memcpy(include_checksum,data, size);
 412:	a8 01       	movw	r20, r16
 414:	0e 94 d1 03 	call	0x7a2	; 0x7a2 <memcpy>
  include_checksum[size] = I2C_checksum_array[type];
 418:	f7 01       	movw	r30, r14
 41a:	e0 0f       	add	r30, r16
 41c:	f1 1f       	adc	r31, r17
 41e:	ab 2d       	mov	r26, r11
 420:	b0 e0       	ldi	r27, 0x00	; 0
 422:	a0 50       	subi	r26, 0x00	; 0
 424:	bf 4f       	sbci	r27, 0xFF	; 255
 426:	8c 91       	ld	r24, X
 428:	80 83       	st	Z, r24
  TWI_Start_Transceiver_With_Data(include_checksum, size+1);
 42a:	61 e0       	ldi	r22, 0x01	; 1
 42c:	6a 0d       	add	r22, r10
 42e:	c7 01       	movw	r24, r14
 430:	0e 94 dc 02 	call	0x5b8	; 0x5b8 <TWI_Start_Transceiver_With_Data>
  //printCharArray(include_checksum, size+1);
  
}
 434:	0f b6       	in	r0, 0x3f	; 63
 436:	f8 94       	cli
 438:	de be       	out	0x3e, r13	; 62
 43a:	0f be       	out	0x3f, r0	; 63
 43c:	cd be       	out	0x3d, r12	; 61
 43e:	df 91       	pop	r29
 440:	cf 91       	pop	r28
 442:	1f 91       	pop	r17
 444:	0f 91       	pop	r16
 446:	ff 90       	pop	r15
 448:	ef 90       	pop	r14
 44a:	df 90       	pop	r13
 44c:	cf 90       	pop	r12
 44e:	bf 90       	pop	r11
 450:	af 90       	pop	r10
 452:	08 95       	ret

00000454 <__vector_18>:

ISR(USART_RX_vect)
{
 454:	1f 92       	push	r1
 456:	0f 92       	push	r0
 458:	0f b6       	in	r0, 0x3f	; 63
 45a:	0f 92       	push	r0
 45c:	11 24       	eor	r1, r1
 45e:	2f 93       	push	r18
 460:	3f 93       	push	r19
 462:	4f 93       	push	r20
 464:	5f 93       	push	r21
 466:	6f 93       	push	r22
 468:	7f 93       	push	r23
 46a:	8f 93       	push	r24
 46c:	9f 93       	push	r25
 46e:	af 93       	push	r26
 470:	bf 93       	push	r27
 472:	ef 93       	push	r30
 474:	ff 93       	push	r31
	cli();
 476:	f8 94       	cli
	char temp = UDR0;
 478:	90 91 c6 00 	lds	r25, 0x00C6
	if (temp == '\n')
 47c:	9a 30       	cpi	r25, 0x0A	; 10
 47e:	91 f4       	brne	.+36     	; 0x4a4 <__vector_18+0x50>
	{
		received_data[usart_index] = temp;
 480:	e0 91 12 01 	lds	r30, 0x0112
 484:	f0 e0       	ldi	r31, 0x00	; 0
 486:	e4 5e       	subi	r30, 0xE4	; 228
 488:	fe 4f       	sbci	r31, 0xFE	; 254
 48a:	8a e0       	ldi	r24, 0x0A	; 10
 48c:	80 83       	st	Z, r24
		usart_index = 0;
 48e:	10 92 12 01 	sts	0x0112, r1
		sei();
 492:	78 94       	sei
		extractData(first_char);
 494:	8c e1       	ldi	r24, 0x1C	; 28
 496:	91 e0       	ldi	r25, 0x01	; 1
 498:	0e 94 a5 00 	call	0x14a	; 0x14a <extractData>
		data_is_ready = 1;
 49c:	81 e0       	ldi	r24, 0x01	; 1
 49e:	80 93 1b 01 	sts	0x011B, r24
 4a2:	0c c0       	rjmp	.+24     	; 0x4bc <__vector_18+0x68>
	}
	else
	{
		data_is_ready = 0;
 4a4:	10 92 1b 01 	sts	0x011B, r1
		received_data[usart_index] = temp;
 4a8:	80 91 12 01 	lds	r24, 0x0112
 4ac:	e8 2f       	mov	r30, r24
 4ae:	f0 e0       	ldi	r31, 0x00	; 0
 4b0:	e4 5e       	subi	r30, 0xE4	; 228
 4b2:	fe 4f       	sbci	r31, 0xFE	; 254
 4b4:	90 83       	st	Z, r25
		usart_index++;
 4b6:	8f 5f       	subi	r24, 0xFF	; 255
 4b8:	80 93 12 01 	sts	0x0112, r24
	}
	sei();
 4bc:	78 94       	sei
}
 4be:	ff 91       	pop	r31
 4c0:	ef 91       	pop	r30
 4c2:	bf 91       	pop	r27
 4c4:	af 91       	pop	r26
 4c6:	9f 91       	pop	r25
 4c8:	8f 91       	pop	r24
 4ca:	7f 91       	pop	r23
 4cc:	6f 91       	pop	r22
 4ce:	5f 91       	pop	r21
 4d0:	4f 91       	pop	r20
 4d2:	3f 91       	pop	r19
 4d4:	2f 91       	pop	r18
 4d6:	0f 90       	pop	r0
 4d8:	0f be       	out	0x3f, r0	; 63
 4da:	0f 90       	pop	r0
 4dc:	1f 90       	pop	r1
 4de:	18 95       	reti

000004e0 <main>:
 * Author : Toni
 */ 
#include "initialization.h"

int main(void)
{
 4e0:	cf 93       	push	r28
 4e2:	df 93       	push	r29
 4e4:	1f 92       	push	r1
 4e6:	cd b7       	in	r28, 0x3d	; 61
 4e8:	de b7       	in	r29, 0x3e	; 62
	// initialize as slave
	USART_Init(MYUBRR);
 4ea:	83 e3       	ldi	r24, 0x33	; 51
 4ec:	90 e0       	ldi	r25, 0x00	; 0
 4ee:	0e 94 53 00 	call	0xa6	; 0xa6 <USART_Init>
		
	// Own TWI slave address
	TWI_slaveAddress = 0x10;
	
	// Initialize TWI module for slave operation. Include address and/or enable General Call.
	TWI_Slave_Initialise( (unsigned char)((TWI_slaveAddress<<TWI_ADR_BITS) | (TRUE<<TWI_GEN_BIT) ));
 4f2:	81 e2       	ldi	r24, 0x21	; 33
 4f4:	0e 94 d1 02 	call	0x5a2	; 0x5a2 <TWI_Slave_Initialise>
	// Start the TWI transceiver to enable reception of the first command from the TWI Master.
	sei();
 4f8:	78 94       	sei
	TWI_Start_Transceiver();
 4fa:	0e 94 fb 02 	call	0x5f6	; 0x5f6 <TWI_Start_Transceiver>
  unsigned char request = 'i';
 4fe:	89 e6       	ldi	r24, 0x69	; 105
 500:	89 83       	std	Y+1, r24	; 0x01
            TWI_Start_Transceiver_With_Data(NULL, NULL);
						break;
				} 
			}
		}
    request = 'i';
 502:	19 e6       	ldi	r17, 0x69	; 105
  unsigned char request = 'i';
	
  
	while (1) 
  {
		if ( !TWI_Transceiver_Busy() )
 504:	0e 94 d9 02 	call	0x5b2	; 0x5b2 <TWI_Transceiver_Busy>
 508:	81 11       	cpse	r24, r1
 50a:	49 c0       	rjmp	.+146    	; 0x59e <main+0xbe>
		{
			if ( TWI_statusReg.RxDataInBuf )
 50c:	80 91 14 01 	lds	r24, 0x0114
 510:	81 ff       	sbrs	r24, 1
 512:	45 c0       	rjmp	.+138    	; 0x59e <main+0xbe>
			{
				TWI_Get_Data_From_Transceiver(&request, 1); 
 514:	61 e0       	ldi	r22, 0x01	; 1
 516:	ce 01       	movw	r24, r28
 518:	01 96       	adiw	r24, 0x01	; 1
 51a:	0e 94 0a 03 	call	0x614	; 0x614 <TWI_Get_Data_From_Transceiver>
        TWI_Start_Transceiver();
 51e:	0e 94 fb 02 	call	0x5f6	; 0x5f6 <TWI_Start_Transceiver>
				switch (request)
 522:	89 81       	ldd	r24, Y+1	; 0x01
 524:	83 36       	cpi	r24, 0x63	; 99
 526:	d1 f0       	breq	.+52     	; 0x55c <main+0x7c>
 528:	28 f4       	brcc	.+10     	; 0x534 <main+0x54>
 52a:	81 36       	cpi	r24, 0x61	; 97
 52c:	49 f0       	breq	.+18     	; 0x540 <main+0x60>
 52e:	82 36       	cpi	r24, 0x62	; 98
 530:	71 f0       	breq	.+28     	; 0x54e <main+0x6e>
 532:	30 c0       	rjmp	.+96     	; 0x594 <main+0xb4>
 534:	85 36       	cpi	r24, 0x65	; 101
 536:	01 f1       	breq	.+64     	; 0x578 <main+0x98>
 538:	c0 f0       	brcs	.+48     	; 0x56a <main+0x8a>
 53a:	86 36       	cpi	r24, 0x66	; 102
 53c:	21 f1       	breq	.+72     	; 0x586 <main+0xa6>
 53e:	2a c0       	rjmp	.+84     	; 0x594 <main+0xb4>
				{
					//a for latitude
					case 'a':
            prepare_TWI_data(LAT,latitude,LATITUDE_SIZE);
 540:	4c e0       	ldi	r20, 0x0C	; 12
 542:	6d e8       	ldi	r22, 0x8D	; 141
 544:	71 e0       	ldi	r23, 0x01	; 1
 546:	80 e0       	ldi	r24, 0x00	; 0
 548:	0e 94 e8 01 	call	0x3d0	; 0x3d0 <prepare_TWI_data>
						break;
 54c:	28 c0       	rjmp	.+80     	; 0x59e <main+0xbe>
					
          //b for longitude
					case 'b':
            prepare_TWI_data(LONG,longitude,LONGITUDE_SIZE);
 54e:	4d e0       	ldi	r20, 0x0D	; 13
 550:	61 e7       	ldi	r22, 0x71	; 113
 552:	71 e0       	ldi	r23, 0x01	; 1
 554:	81 e0       	ldi	r24, 0x01	; 1
 556:	0e 94 e8 01 	call	0x3d0	; 0x3d0 <prepare_TWI_data>
						break;
 55a:	21 c0       	rjmp	.+66     	; 0x59e <main+0xbe>
					
          //c for time
					case 'c':
            prepare_TWI_data(TIME,time,TIME_SIZE);
 55c:	49 e0       	ldi	r20, 0x09	; 9
 55e:	64 e8       	ldi	r22, 0x84	; 132
 560:	71 e0       	ldi	r23, 0x01	; 1
 562:	85 e0       	ldi	r24, 0x05	; 5
 564:	0e 94 e8 01 	call	0x3d0	; 0x3d0 <prepare_TWI_data>
						break;
 568:	1a c0       	rjmp	.+52     	; 0x59e <main+0xbe>
					
          //d for speed
					case 'd':
            prepare_TWI_data(SPD,speed,SPEED_SIZE);
 56a:	45 e0       	ldi	r20, 0x05	; 5
 56c:	69 e9       	ldi	r22, 0x99	; 153
 56e:	71 e0       	ldi	r23, 0x01	; 1
 570:	83 e0       	ldi	r24, 0x03	; 3
 572:	0e 94 e8 01 	call	0x3d0	; 0x3d0 <prepare_TWI_data>
						break;
 576:	13 c0       	rjmp	.+38     	; 0x59e <main+0xbe>
					
          //e for course
					case 'e':
            prepare_TWI_data(CRSE,course,COURSE_SIZE);
 578:	45 e0       	ldi	r20, 0x05	; 5
 57a:	6c e6       	ldi	r22, 0x6C	; 108
 57c:	71 e0       	ldi	r23, 0x01	; 1
 57e:	84 e0       	ldi	r24, 0x04	; 4
 580:	0e 94 e8 01 	call	0x3d0	; 0x3d0 <prepare_TWI_data>
						break;
 584:	0c c0       	rjmp	.+24     	; 0x59e <main+0xbe>
					
          //f for altitude
					case 'f':
            prepare_TWI_data(ALT,altitude,ALTITUDE_SIZE);
 586:	46 e0       	ldi	r20, 0x06	; 6
 588:	6e e7       	ldi	r22, 0x7E	; 126
 58a:	71 e0       	ldi	r23, 0x01	; 1
 58c:	82 e0       	ldi	r24, 0x02	; 2
 58e:	0e 94 e8 01 	call	0x3d0	; 0x3d0 <prepare_TWI_data>
						break;
 592:	05 c0       	rjmp	.+10     	; 0x59e <main+0xbe>
            
					default:
            TWI_Start_Transceiver_With_Data(NULL, NULL);
 594:	60 e0       	ldi	r22, 0x00	; 0
 596:	80 e0       	ldi	r24, 0x00	; 0
 598:	90 e0       	ldi	r25, 0x00	; 0
 59a:	0e 94 dc 02 	call	0x5b8	; 0x5b8 <TWI_Start_Transceiver_With_Data>
						break;
				} 
			}
		}
    request = 'i';
 59e:	19 83       	std	Y+1, r17	; 0x01
  }
 5a0:	b1 cf       	rjmp	.-158    	; 0x504 <main+0x24>

000005a2 <TWI_Slave_Initialise>:
The TWI module is configured to NACK on any requests. Use a TWI_Start_Transceiver function to 
start the TWI.
****************************************************************************/
void TWI_Slave_Initialise( unsigned char TWI_ownAddress )
{
  TWAR = TWI_ownAddress;                            // Set own TWI slave address. Accept TWI General Calls.
 5a2:	80 93 ba 00 	sts	0x00BA, r24
  TWCR = (1<<TWEN)|                                 // Enable TWI-interface and release TWI pins.
 5a6:	84 e0       	ldi	r24, 0x04	; 4
 5a8:	80 93 bc 00 	sts	0x00BC, r24
         (0<<TWIE)|(0<<TWINT)|                      // Disable TWI Interupt.
         (0<<TWEA)|(0<<TWSTA)|(0<<TWSTO)|           // Do not ACK on any requests, yet.
         (0<<TWWC);                                 //
  TWI_busy = 0;
 5ac:	10 92 15 01 	sts	0x0115, r1
 5b0:	08 95       	ret

000005b2 <TWI_Transceiver_Busy>:
/****************************************************************************
Call this function to test if the TWI_ISR is busy transmitting.
****************************************************************************/
unsigned char TWI_Transceiver_Busy( void )
{
  return TWI_busy;
 5b2:	80 91 15 01 	lds	r24, 0x0115
}
 5b6:	08 95       	ret

000005b8 <TWI_Start_Transceiver_With_Data>:
/****************************************************************************
Call this function to test if the TWI_ISR is busy transmitting.
****************************************************************************/
unsigned char TWI_Transceiver_Busy( void )
{
  return TWI_busy;
 5b8:	20 91 15 01 	lds	r18, 0x0115
then initialize the next operation and return.
****************************************************************************/
void TWI_Start_Transceiver_With_Data( unsigned char *msg, unsigned char msgSize )
{
  unsigned char temp;
  while ( TWI_Transceiver_Busy() ) {}             // Wait until TWI is ready for next transmission.
 5bc:	21 11       	cpse	r18, r1
 5be:	fc cf       	rjmp	.-8      	; 0x5b8 <TWI_Start_Transceiver_With_Data>

  TWI_msgSize = msgSize;                        // Number of data to transmit.
 5c0:	60 93 16 01 	sts	0x0116, r22
  for ( temp = 0; temp < msgSize; temp++ )      // Copy data that may be transmitted if the TWI Master requests data.
 5c4:	66 23       	and	r22, r22
 5c6:	59 f0       	breq	.+22     	; 0x5de <TWI_Start_Transceiver_With_Data+0x26>
 5c8:	28 2f       	mov	r18, r24
 5ca:	a7 e1       	ldi	r26, 0x17	; 23
 5cc:	b1 e0       	ldi	r27, 0x01	; 1
 5ce:	e8 2f       	mov	r30, r24
 5d0:	f9 2f       	mov	r31, r25
  {
    TWI_buf[ temp ] = msg[ temp ];
 5d2:	81 91       	ld	r24, Z+
 5d4:	8d 93       	st	X+, r24
 5d6:	8e 2f       	mov	r24, r30
 5d8:	82 1b       	sub	r24, r18
{
  unsigned char temp;
  while ( TWI_Transceiver_Busy() ) {}             // Wait until TWI is ready for next transmission.

  TWI_msgSize = msgSize;                        // Number of data to transmit.
  for ( temp = 0; temp < msgSize; temp++ )      // Copy data that may be transmitted if the TWI Master requests data.
 5da:	86 17       	cp	r24, r22
 5dc:	d0 f3       	brcs	.-12     	; 0x5d2 <TWI_Start_Transceiver_With_Data+0x1a>
  {
    TWI_buf[ temp ] = msg[ temp ];
  }
  TWI_statusReg.all = 0;      
 5de:	10 92 14 01 	sts	0x0114, r1
  TWI_state         = TWI_NO_STATE ;
 5e2:	88 ef       	ldi	r24, 0xF8	; 248
 5e4:	80 93 06 01 	sts	0x0106, r24
  TWCR = (1<<TWEN)|                             // TWI Interface enabled.
 5e8:	85 ec       	ldi	r24, 0xC5	; 197
 5ea:	80 93 bc 00 	sts	0x00BC, r24
         (1<<TWIE)|(1<<TWINT)|                  // Enable TWI Interupt and clear the flag.
         (1<<TWEA)|(0<<TWSTA)|(0<<TWSTO)|       // Prepare to ACK next time the Slave is addressed.
         (0<<TWWC);                             //
  TWI_busy = 1;
 5ee:	81 e0       	ldi	r24, 0x01	; 1
 5f0:	80 93 15 01 	sts	0x0115, r24
 5f4:	08 95       	ret

000005f6 <TWI_Start_Transceiver>:
/****************************************************************************
Call this function to test if the TWI_ISR is busy transmitting.
****************************************************************************/
unsigned char TWI_Transceiver_Busy( void )
{
  return TWI_busy;
 5f6:	80 91 15 01 	lds	r24, 0x0115
in the transceiver buffers. The function will hold execution (loop) until the TWI_ISR has completed with the 
previous operation, then initialize the next operation and return.
****************************************************************************/
void TWI_Start_Transceiver( void )
{
  while ( TWI_Transceiver_Busy() ) {}             // Wait until TWI is ready for next transmission.
 5fa:	81 11       	cpse	r24, r1
 5fc:	fc cf       	rjmp	.-8      	; 0x5f6 <TWI_Start_Transceiver>
  TWI_statusReg.all = 0;      
 5fe:	10 92 14 01 	sts	0x0114, r1
  TWI_state         = TWI_NO_STATE ;
 602:	88 ef       	ldi	r24, 0xF8	; 248
 604:	80 93 06 01 	sts	0x0106, r24
  TWCR = (1<<TWEN)|                             // TWI Interface enabled.
 608:	85 ec       	ldi	r24, 0xC5	; 197
 60a:	80 93 bc 00 	sts	0x00BC, r24
         (1<<TWIE)|(1<<TWINT)|                  // Enable TWI Interupt and clear the flag.
         (1<<TWEA)|(0<<TWSTA)|(0<<TWSTO)|       // Prepare to ACK next time the Slave is addressed.
         (0<<TWWC);                             //
  TWI_busy = 0;
 60e:	10 92 15 01 	sts	0x0115, r1
 612:	08 95       	ret

00000614 <TWI_Get_Data_From_Transceiver>:
/****************************************************************************
Call this function to test if the TWI_ISR is busy transmitting.
****************************************************************************/
unsigned char TWI_Transceiver_Busy( void )
{
  return TWI_busy;
 614:	20 91 15 01 	lds	r18, 0x0115
****************************************************************************/
unsigned char TWI_Get_Data_From_Transceiver( unsigned char *msg, unsigned char msgSize )
{
  unsigned char i;

  while ( TWI_Transceiver_Busy() ) {}             // Wait until TWI is ready for next transmission.
 618:	21 11       	cpse	r18, r1
 61a:	fc cf       	rjmp	.-8      	; 0x614 <TWI_Get_Data_From_Transceiver>

  if( TWI_statusReg.lastTransOK )               // Last transmission completed successfully.              
 61c:	20 91 14 01 	lds	r18, 0x0114
 620:	20 ff       	sbrs	r18, 0
 622:	12 c0       	rjmp	.+36     	; 0x648 <TWI_Get_Data_From_Transceiver+0x34>
  {                                             
    for ( i=0; i<msgSize; i++ )                 // Copy data from Transceiver buffer.
 624:	66 23       	and	r22, r22
 626:	59 f0       	breq	.+22     	; 0x63e <TWI_Get_Data_From_Transceiver+0x2a>
 628:	27 e1       	ldi	r18, 0x17	; 23
 62a:	31 e0       	ldi	r19, 0x01	; 1
 62c:	a8 2f       	mov	r26, r24
 62e:	b9 2f       	mov	r27, r25
 630:	f9 01       	movw	r30, r18
    {
      msg[ i ] = TWI_buf[ i ];
 632:	81 91       	ld	r24, Z+
 634:	8d 93       	st	X+, r24
 636:	8e 2f       	mov	r24, r30
 638:	82 1b       	sub	r24, r18

  while ( TWI_Transceiver_Busy() ) {}             // Wait until TWI is ready for next transmission.

  if( TWI_statusReg.lastTransOK )               // Last transmission completed successfully.              
  {                                             
    for ( i=0; i<msgSize; i++ )                 // Copy data from Transceiver buffer.
 63a:	86 17       	cp	r24, r22
 63c:	d0 f3       	brcs	.-12     	; 0x632 <TWI_Get_Data_From_Transceiver+0x1e>
    {
      msg[ i ] = TWI_buf[ i ];
    }
    TWI_statusReg.RxDataInBuf = FALSE;          // Slave Receive data has been read from buffer.
 63e:	80 91 14 01 	lds	r24, 0x0114
 642:	8d 7f       	andi	r24, 0xFD	; 253
 644:	80 93 14 01 	sts	0x0114, r24
  }
  return( TWI_statusReg.lastTransOK );                                   
 648:	80 91 14 01 	lds	r24, 0x0114
}
 64c:	81 70       	andi	r24, 0x01	; 1
 64e:	08 95       	ret

00000650 <__vector_24>:
This function is the Interrupt Service Routine (ISR), and called when the TWI interrupt is triggered;
that is whenever a TWI event has occurred. This function should not be called directly from the main
application.
****************************************************************************/
ISR(TWI_vect)
{
 650:	1f 92       	push	r1
 652:	0f 92       	push	r0
 654:	0f b6       	in	r0, 0x3f	; 63
 656:	0f 92       	push	r0
 658:	11 24       	eor	r1, r1
 65a:	8f 93       	push	r24
 65c:	9f 93       	push	r25
 65e:	ef 93       	push	r30
 660:	ff 93       	push	r31
  static unsigned char TWI_bufPtr;
  
  switch (TWSR)
 662:	80 91 b9 00 	lds	r24, 0x00B9
 666:	80 39       	cpi	r24, 0x90	; 144
 668:	09 f4       	brne	.+2      	; 0x66c <__vector_24+0x1c>
 66a:	63 c0       	rjmp	.+198    	; 0x732 <__vector_24+0xe2>
 66c:	90 f4       	brcc	.+36     	; 0x692 <__vector_24+0x42>
 66e:	80 37       	cpi	r24, 0x70	; 112
 670:	09 f4       	brne	.+2      	; 0x674 <__vector_24+0x24>
 672:	4c c0       	rjmp	.+152    	; 0x70c <__vector_24+0xbc>
 674:	38 f4       	brcc	.+14     	; 0x684 <__vector_24+0x34>
 676:	88 23       	and	r24, r24
 678:	09 f4       	brne	.+2      	; 0x67c <__vector_24+0x2c>
 67a:	79 c0       	rjmp	.+242    	; 0x76e <__vector_24+0x11e>
 67c:	80 36       	cpi	r24, 0x60	; 96
 67e:	09 f4       	brne	.+2      	; 0x682 <__vector_24+0x32>
 680:	4a c0       	rjmp	.+148    	; 0x716 <__vector_24+0xc6>
 682:	7d c0       	rjmp	.+250    	; 0x77e <__vector_24+0x12e>
 684:	80 38       	cpi	r24, 0x80	; 128
 686:	09 f4       	brne	.+2      	; 0x68a <__vector_24+0x3a>
 688:	54 c0       	rjmp	.+168    	; 0x732 <__vector_24+0xe2>
 68a:	88 38       	cpi	r24, 0x88	; 136
 68c:	09 f4       	brne	.+2      	; 0x690 <__vector_24+0x40>
 68e:	6f c0       	rjmp	.+222    	; 0x76e <__vector_24+0x11e>
 690:	76 c0       	rjmp	.+236    	; 0x77e <__vector_24+0x12e>
 692:	88 3a       	cpi	r24, 0xA8	; 168
 694:	81 f0       	breq	.+32     	; 0x6b6 <__vector_24+0x66>
 696:	38 f4       	brcc	.+14     	; 0x6a6 <__vector_24+0x56>
 698:	88 39       	cpi	r24, 0x98	; 152
 69a:	09 f4       	brne	.+2      	; 0x69e <__vector_24+0x4e>
 69c:	68 c0       	rjmp	.+208    	; 0x76e <__vector_24+0x11e>
 69e:	80 3a       	cpi	r24, 0xA0	; 160
 6a0:	09 f4       	brne	.+2      	; 0x6a4 <__vector_24+0x54>
 6a2:	5f c0       	rjmp	.+190    	; 0x762 <__vector_24+0x112>
 6a4:	6c c0       	rjmp	.+216    	; 0x77e <__vector_24+0x12e>
 6a6:	80 3c       	cpi	r24, 0xC0	; 192
 6a8:	d9 f0       	breq	.+54     	; 0x6e0 <__vector_24+0x90>
 6aa:	88 3c       	cpi	r24, 0xC8	; 200
 6ac:	09 f4       	brne	.+2      	; 0x6b0 <__vector_24+0x60>
 6ae:	5f c0       	rjmp	.+190    	; 0x76e <__vector_24+0x11e>
 6b0:	88 3b       	cpi	r24, 0xB8	; 184
 6b2:	19 f0       	breq	.+6      	; 0x6ba <__vector_24+0x6a>
 6b4:	64 c0       	rjmp	.+200    	; 0x77e <__vector_24+0x12e>
  {
    case TWI_STX_ADR_ACK:            // Own SLA+R has been received; ACK has been returned
//    case TWI_STX_ADR_ACK_M_ARB_LOST: // Arbitration lost in SLA+R/W as Master; own SLA+R has been received; ACK has been returned
      TWI_bufPtr   = 0;                                 // Set buffer pointer to first data location
 6b6:	10 92 13 01 	sts	0x0113, r1
    case TWI_STX_DATA_ACK:           // Data byte in TWDR has been transmitted; ACK has been received
      TWDR = TWI_buf[TWI_bufPtr++];
 6ba:	e0 91 13 01 	lds	r30, 0x0113
 6be:	81 e0       	ldi	r24, 0x01	; 1
 6c0:	8e 0f       	add	r24, r30
 6c2:	80 93 13 01 	sts	0x0113, r24
 6c6:	f0 e0       	ldi	r31, 0x00	; 0
 6c8:	e9 5e       	subi	r30, 0xE9	; 233
 6ca:	fe 4f       	sbci	r31, 0xFE	; 254
 6cc:	80 81       	ld	r24, Z
 6ce:	80 93 bb 00 	sts	0x00BB, r24
      TWCR = (1<<TWEN)|                                 // TWI Interface enabled
 6d2:	85 ec       	ldi	r24, 0xC5	; 197
 6d4:	80 93 bc 00 	sts	0x00BC, r24
             (1<<TWIE)|(1<<TWINT)|                      // Enable TWI Interupt and clear the flag to send byte
             (1<<TWEA)|(0<<TWSTA)|(0<<TWSTO)|           // 
             (0<<TWWC);                                 //
      TWI_busy = 1;
 6d8:	81 e0       	ldi	r24, 0x01	; 1
 6da:	80 93 15 01 	sts	0x0115, r24
      break;
 6de:	58 c0       	rjmp	.+176    	; 0x790 <__vector_24+0x140>
    case TWI_STX_DATA_NACK:          // Data byte in TWDR has been transmitted; NACK has been received. 
                                     // I.e. this could be the end of the transmission.
      if (TWI_bufPtr == TWI_msgSize) // Have we transceived all expected data?
 6e0:	90 91 13 01 	lds	r25, 0x0113
 6e4:	80 91 16 01 	lds	r24, 0x0116
 6e8:	98 13       	cpse	r25, r24
 6ea:	06 c0       	rjmp	.+12     	; 0x6f8 <__vector_24+0xa8>
      {
        TWI_statusReg.lastTransOK = TRUE;               // Set status bits to completed successfully. 
 6ec:	80 91 14 01 	lds	r24, 0x0114
 6f0:	81 60       	ori	r24, 0x01	; 1
 6f2:	80 93 14 01 	sts	0x0114, r24
 6f6:	04 c0       	rjmp	.+8      	; 0x700 <__vector_24+0xb0>
      } 
      else                          // Master has sent a NACK before all data where sent.
      {
        TWI_state = TWSR;                               // Store TWI State as errormessage.      
 6f8:	80 91 b9 00 	lds	r24, 0x00B9
 6fc:	80 93 06 01 	sts	0x0106, r24
      }        
                                                        
      TWCR = (1<<TWEN)|                                 // Enable TWI-interface and release TWI pins
 700:	85 ec       	ldi	r24, 0xC5	; 197
 702:	80 93 bc 00 	sts	0x00BC, r24
             (1<<TWIE)|(1<<TWINT)|                      // Keep interrupt enabled and clear the flag
             (1<<TWEA)|(0<<TWSTA)|(0<<TWSTO)|           // Answer on next address match
             (0<<TWWC);                                 //
      
      TWI_busy = 0;   // Transmit is finished, we are not busy anymore
 706:	10 92 15 01 	sts	0x0115, r1
      break;     
 70a:	42 c0       	rjmp	.+132    	; 0x790 <__vector_24+0x140>
    case TWI_SRX_GEN_ACK:            // General call address has been received; ACK has been returned
//    case TWI_SRX_GEN_ACK_M_ARB_LOST: // Arbitration lost in SLA+R/W as Master; General call address has been received; ACK has been returned
      TWI_statusReg.genAddressCall = TRUE;
 70c:	80 91 14 01 	lds	r24, 0x0114
 710:	84 60       	ori	r24, 0x04	; 4
 712:	80 93 14 01 	sts	0x0114, r24
    case TWI_SRX_ADR_ACK:            // Own SLA+W has been received ACK has been returned
//    case TWI_SRX_ADR_ACK_M_ARB_LOST: // Arbitration lost in SLA+R/W as Master; own SLA+W has been received; ACK has been returned    
                                                        // Dont need to clear TWI_S_statusRegister.generalAddressCall due to that it is the default state.
      TWI_statusReg.RxDataInBuf = TRUE;      
 716:	80 91 14 01 	lds	r24, 0x0114
 71a:	82 60       	ori	r24, 0x02	; 2
 71c:	80 93 14 01 	sts	0x0114, r24
      TWI_bufPtr   = 0;                                 // Set buffer pointer to first data location
 720:	10 92 13 01 	sts	0x0113, r1
      
                                                        // Reset the TWI Interupt to wait for a new event.
      TWCR = (1<<TWEN)|                                 // TWI Interface enabled
 724:	85 ec       	ldi	r24, 0xC5	; 197
 726:	80 93 bc 00 	sts	0x00BC, r24
             (1<<TWIE)|(1<<TWINT)|                      // Enable TWI Interupt and clear the flag to send byte
             (1<<TWEA)|(0<<TWSTA)|(0<<TWSTO)|           // Expect ACK on this transmission
             (0<<TWWC);  
      TWI_busy = 1;
 72a:	81 e0       	ldi	r24, 0x01	; 1
 72c:	80 93 15 01 	sts	0x0115, r24
      
      break;
 730:	2f c0       	rjmp	.+94     	; 0x790 <__vector_24+0x140>
    case TWI_SRX_ADR_DATA_ACK:       // Previously addressed with own SLA+W; data has been received; ACK has been returned
    case TWI_SRX_GEN_DATA_ACK:       // Previously addressed with general call; data has been received; ACK has been returned
      TWI_buf[TWI_bufPtr++]     = TWDR;
 732:	e0 91 13 01 	lds	r30, 0x0113
 736:	81 e0       	ldi	r24, 0x01	; 1
 738:	8e 0f       	add	r24, r30
 73a:	80 93 13 01 	sts	0x0113, r24
 73e:	80 91 bb 00 	lds	r24, 0x00BB
 742:	f0 e0       	ldi	r31, 0x00	; 0
 744:	e9 5e       	subi	r30, 0xE9	; 233
 746:	fe 4f       	sbci	r31, 0xFE	; 254
 748:	80 83       	st	Z, r24
      TWI_statusReg.lastTransOK = TRUE;                 // Set flag transmission successfull.       
 74a:	80 91 14 01 	lds	r24, 0x0114
 74e:	81 60       	ori	r24, 0x01	; 1
 750:	80 93 14 01 	sts	0x0114, r24
                                                        // Reset the TWI Interupt to wait for a new event.
      TWCR = (1<<TWEN)|                                 // TWI Interface enabled
 754:	85 ec       	ldi	r24, 0xC5	; 197
 756:	80 93 bc 00 	sts	0x00BC, r24
             (1<<TWIE)|(1<<TWINT)|                      // Enable TWI Interupt and clear the flag to send byte
             (1<<TWEA)|(0<<TWSTA)|(0<<TWSTO)|           // Send ACK after next reception
             (0<<TWWC);                                 // 
      TWI_busy = 1;
 75a:	81 e0       	ldi	r24, 0x01	; 1
 75c:	80 93 15 01 	sts	0x0115, r24
      break;
 760:	17 c0       	rjmp	.+46     	; 0x790 <__vector_24+0x140>
    case TWI_SRX_STOP_RESTART:       // A STOP condition or repeated START condition has been received while still addressed as Slave    
                                                        // Enter not addressed mode and listen to address match
      TWCR = (1<<TWEN)|                                 // Enable TWI-interface and release TWI pins
 762:	85 ec       	ldi	r24, 0xC5	; 197
 764:	80 93 bc 00 	sts	0x00BC, r24
             (1<<TWIE)|(1<<TWINT)|                      // Enable interrupt and clear the flag
             (1<<TWEA)|(0<<TWSTA)|(0<<TWSTO)|           // Wait for new address match
             (0<<TWWC);                                 //
      
      TWI_busy = 0;  // We are waiting for a new address match, so we are not busy
 768:	10 92 15 01 	sts	0x0115, r1
      
      break;           
 76c:	11 c0       	rjmp	.+34     	; 0x790 <__vector_24+0x140>
    case TWI_SRX_ADR_DATA_NACK:      // Previously addressed with own SLA+W; data has been received; NOT ACK has been returned
    case TWI_SRX_GEN_DATA_NACK:      // Previously addressed with general call; data has been received; NOT ACK has been returned
    case TWI_STX_DATA_ACK_LAST_BYTE: // Last data byte in TWDR has been transmitted (TWEA = 0); ACK has been received
//    case TWI_NO_STATE              // No relevant state information available; TWINT = 0
    case TWI_BUS_ERROR:         // Bus error due to an illegal START or STOP condition
      TWI_state = TWSR;                 //Store TWI State as errormessage, operation also clears noErrors bit
 76e:	80 91 b9 00 	lds	r24, 0x00B9
 772:	80 93 06 01 	sts	0x0106, r24
      TWCR =   (1<<TWSTO)|(1<<TWINT);   //Recover from TWI_BUS_ERROR, this will release the SDA and SCL pins thus enabling other devices to use the bus
 776:	80 e9       	ldi	r24, 0x90	; 144
 778:	80 93 bc 00 	sts	0x00BC, r24
      break;
 77c:	09 c0       	rjmp	.+18     	; 0x790 <__vector_24+0x140>
    default:     
      TWI_state = TWSR;                                 // Store TWI State as errormessage, operation also clears the Success bit.      
 77e:	80 91 b9 00 	lds	r24, 0x00B9
 782:	80 93 06 01 	sts	0x0106, r24
      TWCR = (1<<TWEN)|                                 // Enable TWI-interface and release TWI pins
 786:	85 ec       	ldi	r24, 0xC5	; 197
 788:	80 93 bc 00 	sts	0x00BC, r24
             (1<<TWIE)|(1<<TWINT)|                      // Keep interrupt enabled and clear the flag
             (1<<TWEA)|(0<<TWSTA)|(0<<TWSTO)|           // Acknowledge on any new requests.
             (0<<TWWC);                                 //
      
      TWI_busy = 0; // Unknown status, so we wait for a new address match that might be something we can handle
 78c:	10 92 15 01 	sts	0x0115, r1
  }
}
 790:	ff 91       	pop	r31
 792:	ef 91       	pop	r30
 794:	9f 91       	pop	r25
 796:	8f 91       	pop	r24
 798:	0f 90       	pop	r0
 79a:	0f be       	out	0x3f, r0	; 63
 79c:	0f 90       	pop	r0
 79e:	1f 90       	pop	r1
 7a0:	18 95       	reti

000007a2 <memcpy>:
 7a2:	fb 01       	movw	r30, r22
 7a4:	dc 01       	movw	r26, r24
 7a6:	02 c0       	rjmp	.+4      	; 0x7ac <memcpy+0xa>
 7a8:	01 90       	ld	r0, Z+
 7aa:	0d 92       	st	X+, r0
 7ac:	41 50       	subi	r20, 0x01	; 1
 7ae:	50 40       	sbci	r21, 0x00	; 0
 7b0:	d8 f7       	brcc	.-10     	; 0x7a8 <memcpy+0x6>
 7b2:	08 95       	ret

000007b4 <_exit>:
 7b4:	f8 94       	cli

000007b6 <__stop_program>:
 7b6:	ff cf       	rjmp	.-2      	; 0x7b6 <__stop_program>
